; Function Attrs: mustprogress nofree norecurse nosync nounwind willreturn memory(argmem: read) uwtable
define noundef i32 @_ZNK6icu_776number4impl21ConstantAffixModifier15getPrefixLengthEv(ptr noundef nonnull readonly align 8 captures(none) dereferenceable(146) %0) unnamed_addr #11 align 2 {
  %2 = getelementptr inbounds nuw i8, ptr %0, i64 24
  %3 = load i16, ptr %2, align 8, !tbaa !21
  %4 = icmp slt i16 %3, 0
  %5 = ashr i16 %3, 5
  %6 = sext i16 %5 to i32
  %7 = getelementptr inbounds nuw i8, ptr %0, i64 28
  %8 = load i32, ptr %7, align 4
  %9 = select i1 %4, i32 %8, i32 %6
  ret i32 %9
}